; Function Attrs: mustprogress nofree norecurse nosync nounwind willreturn memory(read, argmem: readwrite, inaccessiblemem: none) uwtable
define hidden void @_ZN3smt13model_checker14init_search_ehEv(ptr noundef nonnull align 8 captures(none) dereferenceable(184) initializes((80, 88)) %0) local_unnamed_addr #12 align 2 {
  %2 = getelementptr inbounds nuw i8, ptr %0, i64 8
  %3 = load ptr, ptr %2, align 8, !tbaa !748
  %4 = getelementptr inbounds nuw i8, ptr %3, i64 112
  %5 = load i32, ptr %4, align 8, !tbaa !753
  %6 = getelementptr inbounds nuw i8, ptr %0, i64 80
  store i32 %5, ptr %6, align 8, !tbaa !15
  %7 = getelementptr inbounds nuw i8, ptr %0, i64 84
  store i32 0, ptr %7, align 4, !tbaa !42
  ret void
}